; Function Attrs: nounwind sspstrong uwtable
define hidden i64 @rb_get_symbol_id(i64 noundef %0) local_unnamed_addr #0 {
  %2 = and i64 %0, 255
  %3 = icmp eq i64 %2, 12
  br i1 %3, label %4, label %6

4:                                                ; preds = %1
  %5 = lshr i64 %0, 8
  br label %rbimpl_RB_TYPE_P_fastpath.exit.thread

6:                                                ; preds = %1
  %7 = icmp eq i64 %0, 0
  %8 = and i64 %0, 7
  %9 = icmp ne i64 %8, 0
  %10 = or i1 %7, %9
  br i1 %10, label %rbimpl_RB_TYPE_P_fastpath.exit.thread, label %RB_DYNAMIC_SYM_P.exit

RB_DYNAMIC_SYM_P.exit:                            ; preds = %6
  %11 = inttoptr i64 %0 to ptr
  %12 = load i64, ptr %11, align 8, !tbaa !26
  %13 = and i64 %12, 31
  switch i64 %13, label %rbimpl_RB_TYPE_P_fastpath.exit.thread [
    i64 20, label %14
    i64 5, label %18
  ]

14:                                               ; preds = %RB_DYNAMIC_SYM_P.exit
  %15 = getelementptr inbounds nuw i8, ptr %11, i64 32
  %16 = load i64, ptr %15, align 8, !tbaa !31
  %17 = and i64 %16, -15
  %.not = icmp eq i64 %17, 0
  %. = select i1 %.not, i64 0, i64 %16
  br label %rbimpl_RB_TYPE_P_fastpath.exit.thread

18:                                               ; preds = %RB_DYNAMIC_SYM_P.exit
  %19 = tail call fastcc i64 @lookup_str_id(i64 noundef %0)
  br label %rbimpl_RB_TYPE_P_fastpath.exit.thread

rbimpl_RB_TYPE_P_fastpath.exit.thread:            ; preds = %RB_DYNAMIC_SYM_P.exit, %6, %14, %18, %4
  %.0 = phi i64 [ %5, %4 ], [ %19, %18 ], [ %., %14 ], [ 0, %6 ], [ 0, %RB_DYNAMIC_SYM_P.exit ]
  ret i64 %.0
}